target datalayout = "e-m:e-p270:32:32-p271:32:32-p272:64:64-i64:64-i128:128-f80:128-n8:16:32:64-S128"
target triple = "x86_64-pc-linux-gnu"

@Truth6 = internal global [6 x i64] [i64 -6148914691236517206, i64 -3689348814741910324, i64 -1085102592571150096, i64 -71777214294589696, i64 -281470681808896, i64 -4294967296], align 16

; Function Attrs: nounwind uwtable
define i32 @If_CluCheckDecOut(i64 noundef %0, i32 noundef %1) #0 {
  %3 = alloca i32, align 4
  %4 = alloca i64, align 8
  %5 = alloca i32, align 4
  %6 = alloca i32, align 4
  %7 = alloca i32, align 4
  store i64 %0, ptr %4, align 8, !tbaa !79
  store i32 %1, ptr %5, align 4, !tbaa !3
  call void @llvm.lifetime.start.p0(i64 4, ptr %6) #11
  store i32 0, ptr %6, align 4, !tbaa !3
  br label %8

8:                                                ; preds = %50, %2
  %9 = load i32, ptr %6, align 4, !tbaa !3
  %10 = load i32, ptr %5, align 4, !tbaa !3
  %11 = icmp slt i32 %9, %10
  br i1 %11, label %12, label %53

12:                                               ; preds = %8
  %13 = load i64, ptr %4, align 8, !tbaa !79
  %14 = load i32, ptr %6, align 4, !tbaa !3
  %15 = sext i32 %14 to i64
  %16 = getelementptr inbounds [6 x i64], ptr @Truth6, i64 0, i64 %15
  %17 = load i64, ptr %16, align 8, !tbaa !79
  %18 = and i64 %13, %17
  %19 = icmp eq i64 %18, 0
  br i1 %19, label %48, label %20

20:                                               ; preds = %12
  %21 = load i64, ptr %4, align 8, !tbaa !79
  %22 = xor i64 %21, -1
  %23 = load i32, ptr %6, align 4, !tbaa !3
  %24 = sext i32 %23 to i64
  %25 = getelementptr inbounds [6 x i64], ptr @Truth6, i64 0, i64 %24
  %26 = load i64, ptr %25, align 8, !tbaa !79
  %27 = and i64 %22, %26
  %28 = icmp eq i64 %27, 0
  br i1 %28, label %48, label %29

29:                                               ; preds = %20
  %30 = load i64, ptr %4, align 8, !tbaa !79
  %31 = load i32, ptr %6, align 4, !tbaa !3
  %32 = sext i32 %31 to i64
  %33 = getelementptr inbounds [6 x i64], ptr @Truth6, i64 0, i64 %32
  %34 = load i64, ptr %33, align 8, !tbaa !79
  %35 = xor i64 %34, -1
  %36 = and i64 %30, %35
  %37 = icmp eq i64 %36, 0
  br i1 %37, label %48, label %38

38:                                               ; preds = %29
  %39 = load i64, ptr %4, align 8, !tbaa !79
  %40 = xor i64 %39, -1
  %41 = load i32, ptr %6, align 4, !tbaa !3
  %42 = sext i32 %41 to i64
  %43 = getelementptr inbounds [6 x i64], ptr @Truth6, i64 0, i64 %42
  %44 = load i64, ptr %43, align 8, !tbaa !79
  %45 = xor i64 %44, -1
  %46 = and i64 %40, %45
  %47 = icmp eq i64 %46, 0
  br i1 %47, label %48, label %49

48:                                               ; preds = %38, %29, %20, %12
  store i32 1, ptr %3, align 4
  store i32 1, ptr %7, align 4
  br label %54

49:                                               ; preds = %38
  br label %50

50:                                               ; preds = %49
  %51 = load i32, ptr %6, align 4, !tbaa !3
  %52 = add nsw i32 %51, 1
  store i32 %52, ptr %6, align 4, !tbaa !3
  br label %8, !llvm.loop !184

53:                                               ; preds = %8
  store i32 0, ptr %3, align 4
  store i32 1, ptr %7, align 4
  br label %54

54:                                               ; preds = %53, %48
  call void @llvm.lifetime.end.p0(i64 4, ptr %6) #11
  %55 = load i32, ptr %3, align 4
  ret i32 %55
}