; Function Attrs: nofree norecurse nosync nounwind memory(none) uwtable
define range(i32 0, 2) i32 @If_CluCheckDecOut(i64 noundef %0, i32 noundef %1) local_unnamed_addr #0 {
  %3 = xor i64 %0, -1
  %4 = icmp sgt i32 %1, 0
  br i1 %4, label %.lr.ph.preheader, label %._crit_edge

.lr.ph.preheader:                                 ; preds = %2
  %wide.trip.count = zext nneg i32 %1 to i64
  br label %.lr.ph

5:                                                ; preds = %12
  %indvars.iv.next = add nuw nsw i64 %indvars.iv, 1
  %exitcond.not = icmp eq i64 %indvars.iv.next, %wide.trip.count
  br i1 %exitcond.not, label %._crit_edge, label %.lr.ph, !llvm.loop !188

.lr.ph:                                           ; preds = %.lr.ph.preheader, %5
  %indvars.iv = phi i64 [ 0, %.lr.ph.preheader ], [ %indvars.iv.next, %5 ]
  %6 = getelementptr inbounds nuw [6 x i64], ptr @s_Truths6, i64 0, i64 %indvars.iv
  %7 = load i64, ptr %6, align 8, !tbaa !16
  %8 = and i64 %7, %0
  %9 = icmp eq i64 %8, 0
  %10 = and i64 %7, %3
  %11 = icmp eq i64 %10, 0
  %or.cond22 = or i1 %9, %11
  br i1 %or.cond22, label %._crit_edge, label %12

12:                                               ; preds = %.lr.ph
  %13 = xor i64 %7, -1
  %14 = and i64 %0, %13
  %15 = icmp eq i64 %14, 0
  %16 = or i64 %7, %0
  %17 = icmp eq i64 %16, -1
  %or.cond = or i1 %15, %17
  br i1 %or.cond, label %._crit_edge, label %5

._crit_edge:                                      ; preds = %12, %.lr.ph, %5, %2
  %.012 = phi i32 [ 0, %2 ], [ 0, %5 ], [ 1, %.lr.ph ], [ 1, %12 ]
  ret i32 %.012
}